; Function Attrs: mustprogress nounwind uwtable
define internal void @_ZN5folly12_GLOBAL__N_110CacheStateD2Ev(ptr noundef nonnull align 1 dereferenceable(1) %0) unnamed_addr #2 align 2 personality ptr @__gxx_personality_v0 {
  invoke void @_ZN5folly6AtFork17unregisterHandlerEPKv(ptr noundef nonnull %0)
          to label %2 unwind label %3

2:                                                ; preds = %1
  ret void

3:                                                ; preds = %1
  %4 = landingpad { ptr, i32 }
          catch ptr null
  %5 = extractvalue { ptr, i32 } %4, 0
  tail call void @__clang_call_terminate(ptr %5) #16
  unreachable
}